; Function Attrs: mustprogress nounwind uwtable
define void @_ZN6icu_7513OlsonTimeZoneD2Ev(ptr noundef nonnull align 8 dereferenceable(224) %this) unnamed_addr #6 align 2 personality ptr @__gxx_personality_v0 {
entry:
  store ptr getelementptr inbounds ({ [23 x ptr] }, ptr @_ZTVN6icu_7513OlsonTimeZoneE, i64 0, i32 0, i64 2), ptr %this, align 8
  invoke void @_ZN6icu_7513OlsonTimeZone21deleteTransitionRulesEv(ptr noundef nonnull align 8 dereferenceable(224) %this)
          to label %invoke.cont unwind label %terminate.lpad

invoke.cont:                                      ; preds = %entry
  %finalZone = getelementptr inbounds i8, ptr %this, i64 128
  %0 = load ptr, ptr %finalZone, align 8
  %isnull = icmp eq ptr %0, null
  br i1 %isnull, label %delete.end, label %delete.notnull

delete.notnull:                                   ; preds = %invoke.cont
  %vtable = load ptr, ptr %0, align 8
  %vfn = getelementptr inbounds i8, ptr %vtable, i64 8
  %1 = load ptr, ptr %vfn, align 8
  tail call void %1(ptr noundef nonnull align 8 dereferenceable(160) %0) #16
  br label %delete.end

delete.end:                                       ; preds = %delete.notnull, %invoke.cont
  tail call void @_ZN6icu_7513BasicTimeZoneD2Ev(ptr noundef nonnull align 8 dereferenceable(72) %this) #16
  ret void

terminate.lpad:                                   ; preds = %entry
  %2 = landingpad { ptr, i32 }
          catch ptr null
  %3 = extractvalue { ptr, i32 } %2, 0
  tail call void @__clang_call_terminate(ptr %3) #17
  unreachable
}